; Function Attrs: mustprogress nofree norecurse nounwind willreturn memory(argmem: readwrite) uwtable
define void @_ZN5arrow13ChunkResolverC2EOS0_(ptr noundef nonnull writeonly align 8 captures(none) dereferenceable(28) initializes((0, 28)) %0, ptr noundef nonnull align 8 captures(none) dereferenceable(28) %1) unnamed_addr #3 align 2 personality ptr @__gxx_personality_v0 {
  %3 = load ptr, ptr %1, align 8, !tbaa !40
  store ptr %3, ptr %0, align 8, !tbaa !40
  %4 = getelementptr inbounds nuw i8, ptr %0, i64 8
  %5 = getelementptr inbounds nuw i8, ptr %1, i64 8
  %6 = load ptr, ptr %5, align 8, !tbaa !45
  store ptr %6, ptr %4, align 8, !tbaa !45
  %7 = getelementptr inbounds nuw i8, ptr %0, i64 16
  %8 = getelementptr inbounds nuw i8, ptr %1, i64 16
  %9 = load ptr, ptr %8, align 8, !tbaa !43
  store ptr %9, ptr %7, align 8, !tbaa !43
  tail call void @llvm.memset.p0.i64(ptr noundef nonnull align 8 dereferenceable(24) %1, i8 0, i64 24, i1 false)
  %10 = getelementptr inbounds nuw i8, ptr %0, i64 24
  %11 = getelementptr inbounds nuw i8, ptr %1, i64 24
  %12 = load atomic i32, ptr %11 monotonic, align 8
  store i32 %12, ptr %10, align 8, !tbaa !77
  ret void
}